target datalayout = "e-m:e-p270:32:32-p271:32:32-p272:64:64-i64:64-i128:128-f80:128-n8:16:32:64-S128"
target triple = "x86_64-pc-linux-gnu"

%struct.ident_t = type { i32, i32, i32, i32, ptr }
%"struct.faiss::AdditiveQuantizer" = type <{ %"struct.faiss::Quantizer", i64, %"class.std::vector", %"class.std::vector.0", %"class.std::vector", i64, i64, i64, i8, i8, i8, [5 x i8], %"struct.faiss::IndexFlat1D", %"class.std::vector.0", i64, i32, float, float, [4 x i8] }>
%"struct.faiss::Quantizer" = type { ptr, i64, i64 }
%"class.std::vector" = type { %"struct.std::_Vector_base" }
%"struct.std::_Vector_base" = type { %"struct.std::_Vector_base<unsigned long, std::allocator<unsigned long>>::_Vector_impl" }
%"struct.std::_Vector_base<unsigned long, std::allocator<unsigned long>>::_Vector_impl" = type { %"struct.std::_Vector_base<unsigned long, std::allocator<unsigned long>>::_Vector_impl_data" }
%"struct.std::_Vector_base<unsigned long, std::allocator<unsigned long>>::_Vector_impl_data" = type { ptr, ptr, ptr }
%"struct.faiss::IndexFlat1D" = type { %"struct.faiss::IndexFlatL2", i8, %"class.std::vector.10" }
%"struct.faiss::IndexFlatL2" = type { %"struct.faiss::IndexFlat", %"class.std::vector.0" }
%"struct.faiss::IndexFlat" = type { %"struct.faiss::IndexFlatCodes" }
%"struct.faiss::IndexFlatCodes" = type { %"struct.faiss::Index.base", i64, %"class.std::vector.5" }
%"struct.faiss::Index.base" = type <{ ptr, i32, [4 x i8], i64, i8, i8, [2 x i8], i32, float }>
%"class.std::vector.5" = type { %"struct.std::_Vector_base.6" }
%"struct.std::_Vector_base.6" = type { %"struct.std::_Vector_base<unsigned char, std::allocator<unsigned char>>::_Vector_impl" }
%"struct.std::_Vector_base<unsigned char, std::allocator<unsigned char>>::_Vector_impl" = type { %"struct.std::_Vector_base<unsigned char, std::allocator<unsigned char>>::_Vector_impl_data" }
%"struct.std::_Vector_base<unsigned char, std::allocator<unsigned char>>::_Vector_impl_data" = type { ptr, ptr, ptr }
%"class.std::vector.10" = type { %"struct.std::_Vector_base.11" }
%"struct.std::_Vector_base.11" = type { %"struct.std::_Vector_base<long, std::allocator<long>>::_Vector_impl" }
%"struct.std::_Vector_base<long, std::allocator<long>>::_Vector_impl" = type { %"struct.std::_Vector_base<long, std::allocator<long>>::_Vector_impl_data" }
%"struct.std::_Vector_base<long, std::allocator<long>>::_Vector_impl_data" = type { ptr, ptr, ptr }
%"class.std::vector.0" = type { %"struct.std::_Vector_base.1" }
%"struct.std::_Vector_base.1" = type { %"struct.std::_Vector_base<float, std::allocator<float>>::_Vector_impl" }
%"struct.std::_Vector_base<float, std::allocator<float>>::_Vector_impl" = type { %"struct.std::_Vector_base<float, std::allocator<float>>::_Vector_impl_data" }
%"struct.std::_Vector_base<float, std::allocator<float>>::_Vector_impl_data" = type { ptr, ptr, ptr }

@1 = private unnamed_addr constant %struct.ident_t { i32 0, i32 514, i32 0, i32 22, ptr @0 }, align 8

; Function Attrs: mustprogress nounwind uwtable
define linkonce_odr noundef ptr @_ZNKSt6vectorIfSaIfEE11_M_data_ptrIfEEPT_S4_(ptr noundef nonnull align 8 dereferenceable(24) %0, ptr noundef %1) #1 comdat align 2 {
  %3 = alloca ptr, align 8
  %4 = alloca ptr, align 8
  store ptr %0, ptr %3, align 8
  store ptr %1, ptr %4, align 8
  %5 = load ptr, ptr %4, align 8
  ret ptr %5
}

; Function Attrs: mustprogress nounwind uwtable
define linkonce_odr noundef nonnull align 8 dereferenceable(8) ptr @_ZNKSt6vectorImSaImEEixEm(ptr noundef nonnull align 8 dereferenceable(24) %0, i64 noundef %1) #1 comdat align 2 {
  %3 = alloca ptr, align 8
  %4 = alloca i64, align 8
  store ptr %0, ptr %3, align 8
  store i64 %1, ptr %4, align 8
  %5 = load ptr, ptr %3, align 8
  %6 = getelementptr inbounds %"struct.std::_Vector_base", ptr %5, i32 0, i32 0
  %7 = getelementptr inbounds %"struct.std::_Vector_base<unsigned long, std::allocator<unsigned long>>::_Vector_impl_data", ptr %6, i32 0, i32 0
  %8 = load ptr, ptr %7, align 8
  %9 = load i64, ptr %4, align 8
  %10 = getelementptr inbounds i64, ptr %8, i64 %9
  ret ptr %10
}

; Function Attrs: mustprogress nounwind uwtable
define linkonce_odr noundef ptr @_ZNKSt6vectorIfSaIfEE4dataEv(ptr noundef nonnull align 8 dereferenceable(24) %0) #1 comdat align 2 {
  %2 = alloca ptr, align 8
  store ptr %0, ptr %2, align 8
  %3 = load ptr, ptr %2, align 8
  %4 = getelementptr inbounds %"struct.std::_Vector_base.1", ptr %3, i32 0, i32 0
  %5 = getelementptr inbounds %"struct.std::_Vector_base<float, std::allocator<float>>::_Vector_impl_data", ptr %4, i32 0, i32 0
  %6 = load ptr, ptr %5, align 8
  %7 = call noundef ptr @_ZNKSt6vectorIfSaIfEE11_M_data_ptrIfEEPT_S4_(ptr noundef nonnull align 8 dereferenceable(24) %3, ptr noundef %6) #13
  ret ptr %7
}

; Function Attrs: norecurse nounwind uwtable
define internal void @_ZNK5faiss17AdditiveQuantizer15decode_unpackedEPKiPfml.omp_outlined(ptr noalias noundef %0, ptr noalias noundef %1, ptr noundef nonnull align 8 dereferenceable(8) %2, ptr noundef nonnull align 8 dereferenceable(8) %3, ptr noundef nonnull align 8 dereferenceable(8) %4, ptr noundef nonnull align 8 dereferenceable(8) %5, ptr noundef %6) #12 personality ptr @__gxx_personality_v0 {
  %8 = alloca ptr, align 8
  %9 = alloca ptr, align 8
  %10 = alloca ptr, align 8
  %11 = alloca ptr, align 8
  %12 = alloca ptr, align 8
  %13 = alloca ptr, align 8
  %14 = alloca ptr, align 8
  %15 = alloca i64, align 8
  %16 = alloca i64, align 8
  %17 = alloca i64, align 8
  %18 = alloca i64, align 8
  %19 = alloca i64, align 8
  %20 = alloca i64, align 8
  %21 = alloca i64, align 8
  %22 = alloca i32, align 4
  %23 = alloca i64, align 8
  %24 = alloca ptr, align 8
  %25 = alloca ptr, align 8
  %26 = alloca i32, align 4
  %27 = alloca i32, align 4
  %28 = alloca ptr, align 8
  store ptr %0, ptr %8, align 8
  store ptr %1, ptr %9, align 8
  store ptr %2, ptr %10, align 8
  store ptr %3, ptr %11, align 8
  store ptr %4, ptr %12, align 8
  store ptr %5, ptr %13, align 8
  store ptr %6, ptr %14, align 8
  %29 = load ptr, ptr %10, align 8
  %30 = load ptr, ptr %11, align 8
  %31 = load ptr, ptr %12, align 8
  %32 = load ptr, ptr %13, align 8
  %33 = load ptr, ptr %14, align 8
  %34 = load i64, ptr %29, align 8
  store i64 %34, ptr %16, align 8
  %35 = load i64, ptr %16, align 8
  %36 = sub i64 %35, 0
  %37 = udiv i64 %36, 1
  %38 = sub i64 %37, 1
  store i64 %38, ptr %17, align 8
  store i64 0, ptr %18, align 8
  %39 = load i64, ptr %16, align 8
  %40 = icmp ult i64 0, %39
  br i1 %40, label %41, label %129

41:                                               ; preds = %7
  store i64 0, ptr %19, align 8
  %42 = load i64, ptr %17, align 8
  store i64 %42, ptr %20, align 8
  store i64 1, ptr %21, align 8
  store i32 0, ptr %22, align 4
  %43 = load ptr, ptr %8, align 8
  %44 = load i32, ptr %43, align 4
  call void @__kmpc_for_static_init_8u(ptr @1, i32 %44, i32 34, ptr %22, ptr %19, ptr %20, ptr %21, i64 1, i64 1)
  %45 = load i64, ptr %20, align 8
  %46 = load i64, ptr %17, align 8
  %47 = icmp ugt i64 %45, %46
  br i1 %47, label %48, label %50

48:                                               ; preds = %41
  %49 = load i64, ptr %17, align 8
  br label %52

50:                                               ; preds = %41
  %51 = load i64, ptr %20, align 8
  br label %52

52:                                               ; preds = %50, %48
  %53 = phi i64 [ %49, %48 ], [ %51, %50 ]
  store i64 %53, ptr %20, align 8
  %54 = load i64, ptr %19, align 8
  store i64 %54, ptr %15, align 8
  br label %55

55:                                               ; preds = %122, %52
  %56 = load i64, ptr %15, align 8
  %57 = load i64, ptr %20, align 8
  %58 = add i64 %57, 1
  %59 = icmp ult i64 %56, %58
  br i1 %59, label %60, label %125

60:                                               ; preds = %55
  %61 = load i64, ptr %15, align 8
  %62 = mul i64 %61, 1
  %63 = add i64 0, %62
  store i64 %63, ptr %23, align 8
  %64 = load ptr, ptr %30, align 8
  %65 = load i64, ptr %23, align 8
  %66 = load i64, ptr %31, align 8
  %67 = mul nsw i64 %65, %66
  %68 = getelementptr inbounds i32, ptr %64, i64 %67
  store ptr %68, ptr %24, align 8
  %69 = load ptr, ptr %32, align 8
  %70 = load i64, ptr %23, align 8
  %71 = getelementptr inbounds %"struct.faiss::Quantizer", ptr %33, i32 0, i32 1
  %72 = load i64, ptr %71, align 8
  %73 = mul i64 %70, %72
  %74 = getelementptr inbounds float, ptr %69, i64 %73
  store ptr %74, ptr %25, align 8
  store i32 0, ptr %26, align 4
  br label %75

75:                                               ; preds = %117, %60
  %76 = load i32, ptr %26, align 4
  %77 = sext i32 %76 to i64
  %78 = getelementptr inbounds %"struct.faiss::AdditiveQuantizer", ptr %33, i32 0, i32 1
  %79 = load i64, ptr %78, align 8
  %80 = icmp ult i64 %77, %79
  br i1 %80, label %81, label %120

81:                                               ; preds = %75
  %82 = load ptr, ptr %24, align 8
  %83 = load i32, ptr %26, align 4
  %84 = sext i32 %83 to i64
  %85 = getelementptr inbounds i32, ptr %82, i64 %84
  %86 = load i32, ptr %85, align 4
  store i32 %86, ptr %27, align 4
  %87 = getelementptr inbounds %"struct.faiss::AdditiveQuantizer", ptr %33, i32 0, i32 3
  %88 = call noundef ptr @_ZNKSt6vectorIfSaIfEE4dataEv(ptr noundef nonnull align 8 dereferenceable(24) %87) #13
  %89 = getelementptr inbounds %"struct.faiss::Quantizer", ptr %33, i32 0, i32 1
  %90 = load i64, ptr %89, align 8
  %91 = getelementptr inbounds %"struct.faiss::AdditiveQuantizer", ptr %33, i32 0, i32 4
  %92 = load i32, ptr %26, align 4
  %93 = sext i32 %92 to i64
  %94 = call noundef nonnull align 8 dereferenceable(8) ptr @_ZNKSt6vectorImSaImEEixEm(ptr noundef nonnull align 8 dereferenceable(24) %91, i64 noundef %93) #13
  %95 = load i64, ptr %94, align 8
  %96 = load i32, ptr %27, align 4
  %97 = sext i32 %96 to i64
  %98 = add i64 %95, %97
  %99 = mul i64 %90, %98
  %100 = getelementptr inbounds float, ptr %88, i64 %99
  store ptr %100, ptr %28, align 8
  %101 = load i32, ptr %26, align 4
  %102 = icmp eq i32 %101, 0
  br i1 %102, label %103, label %109

103:                                              ; preds = %81
  %104 = load ptr, ptr %25, align 8
  %105 = load ptr, ptr %28, align 8
  %106 = getelementptr inbounds %"struct.faiss::Quantizer", ptr %33, i32 0, i32 1
  %107 = load i64, ptr %106, align 8
  %108 = mul i64 4, %107
  call void @llvm.memcpy.p0.p0.i64(ptr align 4 %104, ptr align 4 %105, i64 %108, i1 false)
  br label %116

109:                                              ; preds = %81
  %110 = getelementptr inbounds %"struct.faiss::Quantizer", ptr %33, i32 0, i32 1
  %111 = load i64, ptr %110, align 8
  %112 = load ptr, ptr %25, align 8
  %113 = load ptr, ptr %28, align 8
  %114 = load ptr, ptr %25, align 8
  invoke void @_ZN5faiss8fvec_addEmPKfS1_Pf(i64 noundef %111, ptr noundef %112, ptr noundef %113, ptr noundef %114)
          to label %115 unwind label %130

115:                                              ; preds = %109
  br label %116

116:                                              ; preds = %115, %103
  br label %117

117:                                              ; preds = %116
  %118 = load i32, ptr %26, align 4
  %119 = add nsw i32 %118, 1
  store i32 %119, ptr %26, align 4
  br label %75, !llvm.loop !18

120:                                              ; preds = %75
  br label %121

121:                                              ; preds = %120
  br label %122

122:                                              ; preds = %121
  %123 = load i64, ptr %15, align 8
  %124 = add i64 %123, 1
  store i64 %124, ptr %15, align 8
  br label %55

125:                                              ; preds = %55
  br label %126

126:                                              ; preds = %125
  %127 = load ptr, ptr %8, align 8
  %128 = load i32, ptr %127, align 4
  call void @__kmpc_for_static_fini(ptr @1, i32 %128)
  br label %129

129:                                              ; preds = %126, %7
  ret void

130:                                              ; preds = %109
  %131 = landingpad { ptr, i32 }
          catch ptr null
  %132 = extractvalue { ptr, i32 } %131, 0
  call void @__clang_call_terminate(ptr %132) #16
  unreachable
}