; Function Attrs: norecurse nounwind uwtable
define internal void @_ZNK5faiss17AdditiveQuantizer15decode_unpackedEPKiPfml.omp_outlined(ptr noalias nocapture noundef readonly %0, ptr noalias nocapture readnone %1, ptr nocapture noundef nonnull readonly align 8 dereferenceable(8) %2, ptr nocapture noundef nonnull readonly align 8 dereferenceable(8) %3, ptr nocapture noundef nonnull readonly align 8 dereferenceable(8) %4, ptr nocapture noundef nonnull readonly align 8 dereferenceable(8) %5, ptr nocapture noundef readonly %6) #14 personality ptr @__gxx_personality_v0 {
  %8 = alloca i64, align 8
  %9 = alloca i64, align 8
  %10 = alloca i64, align 8
  %11 = alloca i32, align 4
  %12 = load i64, ptr %2, align 8
  %.not = icmp eq i64 %12, 0
  br i1 %.not, label %57, label %13

13:                                               ; preds = %7
  %14 = add i64 %12, -1
  store i64 0, ptr %8, align 8
  store i64 %14, ptr %9, align 8
  store i64 1, ptr %10, align 8
  store i32 0, ptr %11, align 4
  %15 = load i32, ptr %0, align 4
  call void @__kmpc_for_static_init_8u(ptr nonnull @1, i32 %15, i32 34, ptr nonnull %11, ptr nonnull %8, ptr nonnull %9, ptr nonnull %10, i64 1, i64 1)
  %16 = load i64, ptr %9, align 8
  %17 = call i64 @llvm.umin.i64(i64 %16, i64 %14)
  store i64 %17, ptr %9, align 8
  %18 = load i64, ptr %8, align 8
  %.not39 = icmp ugt i64 %18, %17
  br i1 %.not39, label %._crit_edge34, label %.lr.ph33

.lr.ph33:                                         ; preds = %13
  %19 = getelementptr inbounds i8, ptr %6, i64 8
  %20 = getelementptr inbounds i8, ptr %6, i64 24
  %21 = getelementptr inbounds i8, ptr %6, i64 56
  %22 = getelementptr inbounds i8, ptr %6, i64 80
  %23 = load i64, ptr %20, align 8
  %.not35 = icmp eq i64 %23, 0
  br i1 %.not35, label %._crit_edge34, label %.lr.ph33.split

.lr.ph33.split:                                   ; preds = %.lr.ph33, %._crit_edge
  %24 = phi i64 [ %52, %._crit_edge ], [ %17, %.lr.ph33 ]
  %25 = phi i64 [ %53, %._crit_edge ], [ 1, %.lr.ph33 ]
  %.031 = phi i64 [ %54, %._crit_edge ], [ %18, %.lr.ph33 ]
  %26 = load ptr, ptr %3, align 8
  %27 = load i64, ptr %4, align 8
  %28 = mul nsw i64 %27, %.031
  %29 = getelementptr inbounds i32, ptr %26, i64 %28
  %30 = load ptr, ptr %5, align 8
  %31 = load i64, ptr %19, align 8
  %32 = mul i64 %31, %.031
  %33 = getelementptr inbounds float, ptr %30, i64 %32
  %.not36 = icmp eq i64 %25, 0
  br i1 %.not36, label %._crit_edge, label %.lr.ph

.lr.ph:                                           ; preds = %.lr.ph33.split, %49
  %indvars.iv = phi i64 [ %indvars.iv.next, %49 ], [ 0, %.lr.ph33.split ]
  %34 = getelementptr inbounds i32, ptr %29, i64 %indvars.iv
  %35 = load i32, ptr %34, align 4
  %36 = load ptr, ptr %21, align 8
  %37 = load i64, ptr %19, align 8
  %38 = load ptr, ptr %22, align 8
  %39 = getelementptr inbounds i64, ptr %38, i64 %indvars.iv
  %40 = load i64, ptr %39, align 8
  %41 = sext i32 %35 to i64
  %42 = add i64 %40, %41
  %43 = mul i64 %42, %37
  %44 = getelementptr inbounds float, ptr %36, i64 %43
  %45 = icmp eq i64 %indvars.iv, 0
  br i1 %45, label %46, label %48

46:                                               ; preds = %.lr.ph
  %47 = shl i64 %37, 2
  call void @llvm.memcpy.p0.p0.i64(ptr align 4 %33, ptr align 4 %44, i64 %47, i1 false)
  br label %49

48:                                               ; preds = %.lr.ph
  invoke void @_ZN5faiss8fvec_addEmPKfS1_Pf(i64 noundef %37, ptr noundef %33, ptr noundef %44, ptr noundef %33)
          to label %49 unwind label %58

49:                                               ; preds = %46, %48
  %indvars.iv.next = add nuw nsw i64 %indvars.iv, 1
  %50 = load i64, ptr %20, align 8
  %51 = icmp ugt i64 %50, %indvars.iv.next
  br i1 %51, label %.lr.ph, label %._crit_edge.loopexit, !llvm.loop !20

._crit_edge.loopexit:                             ; preds = %49
  %.pre = load i64, ptr %9, align 8
  br label %._crit_edge

._crit_edge:                                      ; preds = %._crit_edge.loopexit, %.lr.ph33.split
  %52 = phi i64 [ %.pre, %._crit_edge.loopexit ], [ %24, %.lr.ph33.split ]
  %53 = phi i64 [ %50, %._crit_edge.loopexit ], [ 0, %.lr.ph33.split ]
  %54 = add nuw i64 %.031, 1
  %55 = add i64 %52, 1
  %56 = icmp ult i64 %54, %55
  br i1 %56, label %.lr.ph33.split, label %._crit_edge34, !llvm.loop !21

._crit_edge34:                                    ; preds = %._crit_edge, %.lr.ph33, %13
  call void @__kmpc_for_static_fini(ptr nonnull @1, i32 %15)
  br label %57

57:                                               ; preds = %._crit_edge34, %7
  ret void

58:                                               ; preds = %48
  %59 = landingpad { ptr, i32 }
          catch ptr null
  %60 = extractvalue { ptr, i32 } %59, 0
  call void @__clang_call_terminate(ptr %60) #21
  unreachable
}